; Function Attrs: mustprogress uwtable
define void @_ZN8QuantLib15BankruptcyEventC2ERKNS_4DateERKNS_8CurrencyENS_9SeniorityES3_d(ptr noundef nonnull align 8 dereferenceable(176) %this, ptr nocapture noundef readonly %vtt, ptr nocapture noundef nonnull readonly align 8 dereferenceable(8) %creditEventDate, ptr nocapture noundef nonnull readonly align 8 dereferenceable(16) %curr, i32 noundef %bondsSen, ptr nocapture noundef nonnull readonly align 8 dereferenceable(8) %settleDate, double noundef %recoveryRates) unnamed_addr #4 align 2 personality ptr @__gxx_personality_v0 {
entry:
  %ref.tmp = alloca %"class.QuantLib::DefaultType", align 8
  %agg.tmp = alloca %"class.QuantLib::Currency", align 8
  call void @llvm.lifetime.start.p0(i64 16, ptr nonnull %ref.tmp) #26
  call void @_ZN8QuantLib11DefaultTypeC1ENS_13AtomicDefault4TypeENS_13Restructuring4TypeE(ptr noundef nonnull align 8 dereferenceable(16) %ref.tmp, i32 noundef 1, i32 noundef 0)
  %0 = load ptr, ptr %curr, align 8, !tbaa !41
  store ptr %0, ptr %agg.tmp, align 8, !tbaa !41
  %pn.i.i = getelementptr inbounds nuw i8, ptr %agg.tmp, i64 8
  %pn3.i.i = getelementptr inbounds nuw i8, ptr %curr, i64 8
  %1 = load ptr, ptr %pn3.i.i, align 8, !tbaa !16
  store ptr %1, ptr %pn.i.i, align 8, !tbaa !16
  %cmp.not.i.i.i = icmp eq ptr %1, null
  br i1 %cmp.not.i.i.i, label %_ZN8QuantLib8CurrencyC2ERKS0_.exit, label %if.then.i.i.i

if.then.i.i.i:                                    ; preds = %entry
  %use_count_.i.i.i.i = getelementptr inbounds nuw i8, ptr %1, i64 8
  %2 = atomicrmw add ptr %use_count_.i.i.i.i, i32 1 monotonic, align 4
  br label %_ZN8QuantLib8CurrencyC2ERKS0_.exit

_ZN8QuantLib8CurrencyC2ERKS0_.exit:               ; preds = %entry, %if.then.i.i.i
  %3 = getelementptr inbounds i8, ptr %vtt, i64 8
  invoke void @_ZN8QuantLib12DefaultEventC2ERKNS_4DateERKNS_11DefaultTypeENS_8CurrencyENS_9SeniorityES3_d(ptr noundef nonnull align 8 dereferenceable(176) %this, ptr noundef nonnull %3, ptr noundef nonnull align 8 dereferenceable(8) %creditEventDate, ptr noundef nonnull align 8 dereferenceable(16) %ref.tmp, ptr noundef nonnull %agg.tmp, i32 noundef %bondsSen, ptr noundef nonnull align 8 dereferenceable(8) %settleDate, double noundef %recoveryRates)
          to label %invoke.cont unwind label %lpad

invoke.cont:                                      ; preds = %_ZN8QuantLib8CurrencyC2ERKS0_.exit
  %4 = load ptr, ptr %pn.i.i, align 8, !tbaa !16
  %cmp.not.i.i.i2 = icmp eq ptr %4, null
  br i1 %cmp.not.i.i.i2, label %_ZN8QuantLib8CurrencyD2Ev.exit, label %if.then.i.i.i3

if.then.i.i.i3:                                   ; preds = %invoke.cont
  %use_count_.i.i.i.i4 = getelementptr inbounds nuw i8, ptr %4, i64 8
  %5 = atomicrmw sub ptr %use_count_.i.i.i.i4, i32 1 acq_rel, align 4
  %cmp.i.i.i.i = icmp eq i32 %5, 1
  br i1 %cmp.i.i.i.i, label %if.then.i.i.i.i, label %_ZN8QuantLib8CurrencyD2Ev.exit

if.then.i.i.i.i:                                  ; preds = %if.then.i.i.i3
  %vtable.i.i.i.i = load ptr, ptr %4, align 8, !tbaa !14
  %vfn.i.i.i.i = getelementptr inbounds i8, ptr %vtable.i.i.i.i, i64 16
  %6 = load ptr, ptr %vfn.i.i.i.i, align 8
  invoke void %6(ptr noundef nonnull align 8 dereferenceable(16) %4)
          to label %.noexc.i.i.i unwind label %terminate.lpad.i.i.i

.noexc.i.i.i:                                     ; preds = %if.then.i.i.i.i
  %weak_count_.i.i.i.i.i = getelementptr inbounds nuw i8, ptr %4, i64 12
  %7 = atomicrmw sub ptr %weak_count_.i.i.i.i.i, i32 1 acq_rel, align 4
  %cmp.i.i.i.i.i = icmp eq i32 %7, 1
  br i1 %cmp.i.i.i.i.i, label %if.then.i.i.i.i.i, label %_ZN8QuantLib8CurrencyD2Ev.exit

if.then.i.i.i.i.i:                                ; preds = %.noexc.i.i.i
  %vtable.i.i.i.i.i = load ptr, ptr %4, align 8, !tbaa !14
  %vfn.i.i.i.i.i = getelementptr inbounds i8, ptr %vtable.i.i.i.i.i, i64 24
  %8 = load ptr, ptr %vfn.i.i.i.i.i, align 8
  invoke void %8(ptr noundef nonnull align 8 dereferenceable(16) %4)
          to label %_ZN8QuantLib8CurrencyD2Ev.exit unwind label %terminate.lpad.i.i.i

terminate.lpad.i.i.i:                             ; preds = %if.then.i.i.i.i.i, %if.then.i.i.i.i
  %9 = landingpad { ptr, i32 }
          catch ptr null
  %10 = extractvalue { ptr, i32 } %9, 0
  call void @__clang_call_terminate(ptr %10) #27
  unreachable

_ZN8QuantLib8CurrencyD2Ev.exit:                   ; preds = %invoke.cont, %if.then.i.i.i3, %.noexc.i.i.i, %if.then.i.i.i.i.i
  call void @llvm.lifetime.end.p0(i64 16, ptr nonnull %ref.tmp) #26
  %11 = load ptr, ptr %vtt, align 8
  store ptr %11, ptr %this, align 8, !tbaa !14
  %12 = getelementptr inbounds i8, ptr %vtt, i64 40
  %13 = load ptr, ptr %12, align 8
  %vbase.offset.ptr = getelementptr i8, ptr %11, i64 -24
  %vbase.offset = load i64, ptr %vbase.offset.ptr, align 8
  %add.ptr = getelementptr inbounds i8, ptr %this, i64 %vbase.offset
  store ptr %13, ptr %add.ptr, align 8, !tbaa !14
  ret void

lpad:                                             ; preds = %_ZN8QuantLib8CurrencyC2ERKS0_.exit
  %14 = landingpad { ptr, i32 }
          cleanup
  call void @_ZN8QuantLib8CurrencyD2Ev(ptr noundef nonnull align 8 dereferenceable(16) %agg.tmp) #26
  call void @llvm.lifetime.end.p0(i64 16, ptr nonnull %ref.tmp) #26
  resume { ptr, i32 } %14
}